; Function Attrs: mustprogress nounwind uwtable
define internal noundef zeroext i1 @"_ZNSt17_Function_handlerIFvPN4node11EnvironmentENS0_8ExitCodeEEZNS0_21SetProcessExitHandlerES2_OSt8functionIFvS2_iEEE3$_0E10_M_managerERSt9_Any_dataRKSB_St18_Manager_operation"(ptr nocapture noundef nonnull align 8 dereferenceable(16) %__dest, ptr nocapture noundef nonnull readonly align 8 dereferenceable(16) %__source, i32 noundef %__op) #3 align 2 {
entry:
  %__source.val = load ptr, ptr %__source, align 8
  switch i32 %__op, label %sw.epilog [
    i32 1, label %sw.bb
    i32 0, label %sw.bb.i
    i32 3, label %sw.bb6.i
    i32 2, label %sw.bb4.i
  ]

sw.bb:                                            ; preds = %entry
  store ptr %__source.val, ptr %__dest, align 8
  br label %sw.epilog

sw.bb.i:                                          ; preds = %entry
  store ptr null, ptr %__dest, align 8
  br label %sw.epilog

sw.bb4.i:                                         ; preds = %entry
  %call.i.i.i = tail call noalias noundef nonnull dereferenceable(32) ptr @_Znwm(i64 noundef 32) #22
  %_M_manager.i.i.i.i.i.i.i = getelementptr inbounds i8, ptr %__source.val, i64 16
  tail call void @llvm.memset.p0.i64(ptr noundef nonnull align 8 dereferenceable(32) %call.i.i.i, i8 0, i64 32, i1 false)
  %0 = load ptr, ptr %_M_manager.i.i.i.i.i.i.i, align 8
  %tobool.not.i.i.not.i.i.i.i.i = icmp eq ptr %0, null
  br i1 %tobool.not.i.i.not.i.i.i.i.i, label %"_ZNSt14_Function_base13_Base_managerIZN4node21SetProcessExitHandlerEPNS1_11EnvironmentEOSt8functionIFvS3_iEEE3$_0E15_M_init_functorIRKS8_EEvRSt9_Any_dataOT_.exit.i", label %if.then.i.i.i.i.i

if.then.i.i.i.i.i:                                ; preds = %sw.bb4.i
  %_M_invoker.i.i.i.i.i = getelementptr inbounds i8, ptr %call.i.i.i, i64 24
  %_M_manager.i.i.i.i.i.i = getelementptr inbounds i8, ptr %call.i.i.i, i64 16
  %call3.i.i.i.i.i = tail call noundef zeroext i1 %0(ptr noundef nonnull align 8 dereferenceable(16) %call.i.i.i, ptr noundef nonnull align 8 dereferenceable(16) %__source.val, i32 noundef 2) #12
  %_M_invoker4.i.i.i.i.i = getelementptr inbounds i8, ptr %__source.val, i64 24
  %1 = load ptr, ptr %_M_invoker4.i.i.i.i.i, align 8
  store ptr %1, ptr %_M_invoker.i.i.i.i.i, align 8
  %2 = load ptr, ptr %_M_manager.i.i.i.i.i.i.i, align 8
  store ptr %2, ptr %_M_manager.i.i.i.i.i.i, align 8
  br label %"_ZNSt14_Function_base13_Base_managerIZN4node21SetProcessExitHandlerEPNS1_11EnvironmentEOSt8functionIFvS3_iEEE3$_0E15_M_init_functorIRKS8_EEvRSt9_Any_dataOT_.exit.i"

"_ZNSt14_Function_base13_Base_managerIZN4node21SetProcessExitHandlerEPNS1_11EnvironmentEOSt8functionIFvS3_iEEE3$_0E15_M_init_functorIRKS8_EEvRSt9_Any_dataOT_.exit.i": ; preds = %if.then.i.i.i.i.i, %sw.bb4.i
  store ptr %call.i.i.i, ptr %__dest, align 8
  br label %sw.epilog

sw.bb6.i:                                         ; preds = %entry
  %__dest.val.i = load ptr, ptr %__dest, align 8
  %isnull.i.i = icmp eq ptr %__dest.val.i, null
  br i1 %isnull.i.i, label %sw.epilog, label %delete.notnull.i.i

delete.notnull.i.i:                               ; preds = %sw.bb6.i
  %_M_manager.i.i.i.i.i = getelementptr inbounds i8, ptr %__dest.val.i, i64 16
  %3 = load ptr, ptr %_M_manager.i.i.i.i.i, align 8
  %tobool.not.i.i.i.i.i = icmp eq ptr %3, null
  br i1 %tobool.not.i.i.i.i.i, label %"_ZZN4node21SetProcessExitHandlerEPNS_11EnvironmentEOSt8functionIFvS1_iEEEN3$_0D2Ev.exit.i.i", label %if.then.i.i.i.i5.i

if.then.i.i.i.i5.i:                               ; preds = %delete.notnull.i.i
  %call.i.i.i.i.i = tail call noundef zeroext i1 %3(ptr noundef nonnull align 8 dereferenceable(16) %__dest.val.i, ptr noundef nonnull align 8 dereferenceable(16) %__dest.val.i, i32 noundef 3) #12
  br label %"_ZZN4node21SetProcessExitHandlerEPNS_11EnvironmentEOSt8functionIFvS1_iEEEN3$_0D2Ev.exit.i.i"

"_ZZN4node21SetProcessExitHandlerEPNS_11EnvironmentEOSt8functionIFvS1_iEEEN3$_0D2Ev.exit.i.i": ; preds = %if.then.i.i.i.i5.i, %delete.notnull.i.i
  tail call void @_ZdlPv(ptr noundef nonnull %__dest.val.i) #21
  br label %sw.epilog

sw.epilog:                                        ; preds = %entry, %"_ZZN4node21SetProcessExitHandlerEPNS_11EnvironmentEOSt8functionIFvS1_iEEEN3$_0D2Ev.exit.i.i", %sw.bb6.i, %"_ZNSt14_Function_base13_Base_managerIZN4node21SetProcessExitHandlerEPNS1_11EnvironmentEOSt8functionIFvS3_iEEE3$_0E15_M_init_functorIRKS8_EEvRSt9_Any_dataOT_.exit.i", %sw.bb.i, %sw.bb
  ret i1 false
}